; Function Attrs: mustprogress nounwind uwtable
define hidden void @_ZN3mbp7mbp_qelD2Ev(ptr noundef nonnull readonly align 8 captures(none) dereferenceable(8) %0) unnamed_addr #4 align 2 personality ptr @__gxx_personality_v0 {
  %2 = load ptr, ptr %0, align 8, !tbaa !3
  %3 = icmp eq ptr %2, null
  br i1 %3, label %_Z7deallocIN3mbp7mbp_qel4implEEvPT_.exit, label %4

4:                                                ; preds = %1
  tail call void @_ZN3mbp7mbp_qel4implD2Ev(ptr noundef nonnull align 8 dereferenceable(360) %2) #19
  invoke void @_ZN6memory10deallocateEPv(ptr noundef nonnull %2)
          to label %_Z7deallocIN3mbp7mbp_qel4implEEvPT_.exit unwind label %5

_Z7deallocIN3mbp7mbp_qel4implEEvPT_.exit:         ; preds = %1, %4
  ret void

5:                                                ; preds = %4
  %6 = landingpad { ptr, i32 }
          catch ptr null
  %7 = extractvalue { ptr, i32 } %6, 0
  tail call void @__clang_call_terminate(ptr %7) #20
  unreachable
}